target datalayout = "e-m:e-p270:32:32-p271:32:32-p272:64:64-i64:64-i128:128-f80:128-n8:16:32:64-S128"
target triple = "x86_64-pc-linux-gnu"

%"class.cvc5::internal::NodeTemplate" = type { ptr }
%"class.cvc5::internal::preprocessing::util::ITEUtilities" = type { %"class.cvc5::internal::EnvObj", %"class.std::unique_ptr", ptr, ptr, ptr }
%"class.cvc5::internal::EnvObj" = type { ptr, ptr }
%"class.std::unique_ptr" = type { %"struct.std::__uniq_ptr_data" }
%"struct.std::__uniq_ptr_data" = type { %"class.std::__uniq_ptr_impl" }
%"class.std::__uniq_ptr_impl" = type { %"class.std::tuple" }
%"class.std::tuple" = type { %"struct.std::_Tuple_impl" }
%"struct.std::_Tuple_impl" = type { %"struct.std::_Head_base.1" }
%"struct.std::_Head_base.1" = type { ptr }
%"class.cvc5::internal::NodeTemplate.375" = type { ptr }

@_ZN4cvc58internal13preprocessing4util17ITECareSimplifierC1EPNS0_11NodeManagerE = hidden unnamed_addr alias void (ptr, ptr), ptr @_ZN4cvc58internal13preprocessing4util17ITECareSimplifierC2EPNS0_11NodeManagerE

; Function Attrs: mustprogress nounwind uwtable
define linkonce_odr hidden void @_ZN4cvc58internal12NodeTemplateILb0EED2Ev(ptr noundef nonnull align 8 dereferenceable(8) %0) unnamed_addr #7 comdat align 2 {
  %2 = alloca ptr, align 8
  store ptr %0, ptr %2, align 8, !tbaa !34
  ret void
}

; Function Attrs: mustprogress nounwind uwtable
define linkonce_odr hidden void @_ZN4cvc58internal12NodeTemplateILb0EEC2ERKS2_(ptr noundef nonnull align 8 dereferenceable(8) %0, ptr noundef nonnull align 8 dereferenceable(8) %1) unnamed_addr #7 comdat align 2 {
  %3 = alloca ptr, align 8
  %4 = alloca ptr, align 8
  store ptr %0, ptr %3, align 8, !tbaa !34
  store ptr %1, ptr %4, align 8, !tbaa !34
  %5 = load ptr, ptr %3, align 8
  %6 = load ptr, ptr %4, align 8, !tbaa !34
  %7 = getelementptr inbounds nuw %"class.cvc5::internal::NodeTemplate.375", ptr %6, i32 0, i32 0
  %8 = load ptr, ptr %7, align 8, !tbaa !53
  %9 = getelementptr inbounds nuw %"class.cvc5::internal::NodeTemplate.375", ptr %5, i32 0, i32 0
  store ptr %8, ptr %9, align 8, !tbaa !53
  ret void
}

; Function Attrs: mustprogress uwtable
define hidden void @_ZN4cvc58internal13preprocessing4util12ITEUtilities16simplifyWithCareENS0_12NodeTemplateILb0EEE(ptr dead_on_unwind noalias writable sret(%"class.cvc5::internal::NodeTemplate") align 8 %0, ptr noundef nonnull align 8 dereferenceable(48) %1, ptr noundef %2) #4 align 2 personality ptr @__gxx_personality_v0 {
  %4 = alloca ptr, align 8
  %5 = alloca ptr, align 8
  %6 = alloca ptr, align 8
  %7 = alloca ptr, align 8
  %8 = alloca i32, align 4
  %9 = alloca %"class.cvc5::internal::NodeTemplate.375", align 8
  store ptr %0, ptr %4, align 8
  store ptr %1, ptr %5, align 8, !tbaa !3
  store ptr %2, ptr %6, align 8, !tbaa !34
  %10 = load ptr, ptr %5, align 8
  %11 = getelementptr inbounds nuw %"class.cvc5::internal::preprocessing::util::ITEUtilities", ptr %10, i32 0, i32 4
  %12 = load ptr, ptr %11, align 8, !tbaa !26
  %13 = icmp eq ptr %12, null
  br i1 %13, label %14, label %24

14:                                               ; preds = %3
  %15 = call noalias noundef nonnull ptr @_Znwm(i64 noundef 48) #20
  %16 = invoke noundef ptr @_ZNK4cvc58internal6EnvObj11nodeManagerEv(ptr noundef nonnull align 8 dereferenceable(16) %10)
          to label %17 unwind label %20

17:                                               ; preds = %14
  invoke void @_ZN4cvc58internal13preprocessing4util17ITECareSimplifierC1EPNS0_11NodeManagerE(ptr noundef nonnull align 8 dereferenceable(48) %15, ptr noundef %16)
          to label %18 unwind label %20

18:                                               ; preds = %17
  %19 = getelementptr inbounds nuw %"class.cvc5::internal::preprocessing::util::ITEUtilities", ptr %10, i32 0, i32 4
  store ptr %15, ptr %19, align 8, !tbaa !26
  br label %24

20:                                               ; preds = %17, %14
  %21 = landingpad { ptr, i32 }
          cleanup
  %22 = extractvalue { ptr, i32 } %21, 0
  store ptr %22, ptr %7, align 8
  %23 = extractvalue { ptr, i32 } %21, 1
  store i32 %23, ptr %8, align 4
  call void @_ZdlPvm(ptr noundef %15, i64 noundef 48) #21
  br label %32

24:                                               ; preds = %18, %3
  %25 = getelementptr inbounds nuw %"class.cvc5::internal::preprocessing::util::ITEUtilities", ptr %10, i32 0, i32 4
  %26 = load ptr, ptr %25, align 8, !tbaa !26
  call void @_ZN4cvc58internal12NodeTemplateILb0EEC2ERKS2_(ptr noundef nonnull align 8 dereferenceable(8) %9, ptr noundef nonnull align 8 dereferenceable(8) %2)
  invoke void @_ZN4cvc58internal13preprocessing4util17ITECareSimplifier16simplifyWithCareENS0_12NodeTemplateILb0EEE(ptr dead_on_unwind writable sret(%"class.cvc5::internal::NodeTemplate") align 8 %0, ptr noundef nonnull align 8 dereferenceable(48) %26, ptr noundef %9)
          to label %27 unwind label %28

27:                                               ; preds = %24
  call void @_ZN4cvc58internal12NodeTemplateILb0EED2Ev(ptr noundef nonnull align 8 dereferenceable(8) %9) #3
  ret void

28:                                               ; preds = %24
  %29 = landingpad { ptr, i32 }
          cleanup
  %30 = extractvalue { ptr, i32 } %29, 0
  store ptr %30, ptr %7, align 8
  %31 = extractvalue { ptr, i32 } %29, 1
  store i32 %31, ptr %8, align 4
  call void @_ZN4cvc58internal12NodeTemplateILb0EED2Ev(ptr noundef nonnull align 8 dereferenceable(8) %9) #3
  br label %32

32:                                               ; preds = %28, %20
  %33 = load ptr, ptr %7, align 8
  %34 = load i32, ptr %8, align 4
  %35 = insertvalue { ptr, i32 } poison, ptr %33, 0
  %36 = insertvalue { ptr, i32 } %35, i32 %34, 1
  resume { ptr, i32 } %36
}