; Function Attrs: mustprogress uwtable
define hidden void @_ZN4cvc58internal13preprocessing4util12ITEUtilities16simplifyWithCareENS0_12NodeTemplateILb0EEE(ptr dead_on_unwind noalias writable sret(%"class.cvc5::internal::NodeTemplate") align 8 %0, ptr noundef nonnull align 8 dereferenceable(48) %1, ptr noundef readonly captures(none) %2) local_unnamed_addr #3 align 2 personality ptr @__gxx_personality_v0 {
  %4 = alloca %"class.cvc5::internal::NodeTemplate.375", align 8
  %5 = getelementptr inbounds nuw i8, ptr %1, i64 40
  %6 = load ptr, ptr %5, align 8, !tbaa !34
  %7 = icmp eq ptr %6, null
  br i1 %7, label %8, label %15

8:                                                ; preds = %3
  %9 = tail call noalias noundef nonnull dereferenceable(48) ptr @_Znwm(i64 noundef 48) #27
  %10 = invoke noundef ptr @_ZNK4cvc58internal6EnvObj11nodeManagerEv(ptr noundef nonnull align 8 dereferenceable(16) %1)
          to label %11 unwind label %13

11:                                               ; preds = %8
  invoke void @_ZN4cvc58internal13preprocessing4util17ITECareSimplifierC2EPNS0_11NodeManagerE(ptr noundef nonnull align 8 dereferenceable(48) %9, ptr noundef %10)
          to label %12 unwind label %13

12:                                               ; preds = %11
  store ptr %9, ptr %5, align 8, !tbaa !34
  br label %15

13:                                               ; preds = %11, %8
  %14 = landingpad { ptr, i32 }
          cleanup
  tail call void @_ZdlPvm(ptr noundef nonnull %9, i64 noundef 48) #29
  resume { ptr, i32 } %14

15:                                               ; preds = %12, %3
  %16 = phi ptr [ %9, %12 ], [ %6, %3 ]
  %17 = load ptr, ptr %2, align 8, !tbaa !36
  store ptr %17, ptr %4, align 8, !tbaa !36
  call void @_ZN4cvc58internal13preprocessing4util17ITECareSimplifier16simplifyWithCareENS0_12NodeTemplateILb0EEE(ptr dead_on_unwind writable sret(%"class.cvc5::internal::NodeTemplate") align 8 %0, ptr noundef nonnull align 8 dereferenceable(48) %16, ptr noundef nonnull %4)
  ret void
}